target datalayout = "e-m:e-p270:32:32-p271:32:32-p272:64:64-i64:64-i128:128-f80:128-n8:16:32:64-S128"
target triple = "x86_64-pc-linux-gnu"

%"struct.boost::parameter::keyword" = type { i8 }
%"class.boost::detail::shared_count" = type { ptr }
%"class.boost::log::v2_mt_posix::sources::severity_logger_mt" = type { %"class.boost::log::v2_mt_posix::sources::basic_composite_logger" }
%"class.boost::log::v2_mt_posix::sources::basic_composite_logger" = type { %"class.boost::log::v2_mt_posix::sources::basic_severity_logger" }
%"class.boost::log::v2_mt_posix::sources::basic_severity_logger" = type { %"class.boost::log::v2_mt_posix::sources::basic_logger", i32, %"class.boost::log::v2_mt_posix::sources::aux::severity_level" }
%"class.boost::log::v2_mt_posix::sources::basic_logger" = type { %"struct.boost::log::v2_mt_posix::sources::multi_thread_model", %"class.boost::shared_ptr", %"class.boost::log::v2_mt_posix::attribute_set" }
%"struct.boost::log::v2_mt_posix::sources::multi_thread_model" = type { %"class.boost::log::v2_mt_posix::aux::light_rw_mutex" }
%"class.boost::log::v2_mt_posix::aux::light_rw_mutex" = type { %union.pthread_rwlock_t }
%union.pthread_rwlock_t = type { %struct.__pthread_rwlock_arch_t }
%struct.__pthread_rwlock_arch_t = type { i32, i32, i32, i32, i32, i32, i32, i32, i8, [7 x i8], i64, i32 }
%"class.boost::shared_ptr" = type { ptr, %"class.boost::detail::shared_count" }
%"class.boost::log::v2_mt_posix::attribute_set" = type { ptr }
%"class.boost::log::v2_mt_posix::sources::aux::severity_level" = type { %"class.boost::log::v2_mt_posix::attribute" }
%"class.boost::log::v2_mt_posix::attribute" = type { %"class.boost::intrusive_ptr" }
%"class.boost::intrusive_ptr" = type { ptr }
%"struct.boost::parameter::aux::tagged_argument_list_of_1" = type { %"class.boost::parameter::aux::tagged_argument" }
%"class.boost::parameter::aux::tagged_argument" = type { ptr }

@_ZN5boost9parameter7keywordINS_3log11v2_mt_posix8keywords3tag8severityEE8instanceE = linkonce_odr hidden constant %"struct.boost::parameter::keyword" undef, comdat, align 1

; Function Attrs: inlinehint mustprogress nounwind uwtable
define linkonce_odr hidden void @_ZN5boost9parameter3aux15tagged_argumentINS_3log11v2_mt_posix8keywords3tag8severityEKNS4_7trivial14severity_levelEEC2ERSA_(ptr noundef nonnull align 8 dereferenceable(8) %0, ptr noundef nonnull align 4 dereferenceable(4) %1) unnamed_addr #8 comdat align 2 {
  %3 = alloca ptr, align 8
  %4 = alloca ptr, align 8
  store ptr %0, ptr %3, align 8, !tbaa !7
  store ptr %1, ptr %4, align 8, !tbaa !7
  %5 = load ptr, ptr %3, align 8
  %6 = getelementptr inbounds nuw %"class.boost::parameter::aux::tagged_argument", ptr %5, i32 0, i32 0
  %7 = load ptr, ptr %4, align 8, !tbaa !7
  store ptr %7, ptr %6, align 8, !tbaa !7
  ret void
}

; Function Attrs: mustprogress uwtable
define linkonce_odr hidden void @_ZN5boost3log11v2_mt_posix7sources22basic_composite_loggerIcNS2_18severity_logger_mtINS1_7trivial14severity_levelEEENS2_18multi_thread_modelINS1_3aux14light_rw_mutexEEENS2_8featuresIJNS2_8severityIS6_EEEEEEC2INS_9parameter3aux25tagged_argument_list_of_1INSJ_15tagged_argumentINS1_8keywords3tag8severityEKS6_EEEEEERKT_(ptr noundef nonnull align 8 dereferenceable(96) %0, ptr noundef nonnull align 8 dereferenceable(8) %1) unnamed_addr #2 comdat align 2 {
  %3 = alloca ptr, align 8
  %4 = alloca ptr, align 8
  store ptr %0, ptr %3, align 8, !tbaa !7
  store ptr %1, ptr %4, align 8, !tbaa !7
  %5 = load ptr, ptr %3, align 8
  %6 = load ptr, ptr %4, align 8, !tbaa !7
  call void @_ZN5boost3log11v2_mt_posix7sources21basic_severity_loggerINS2_12basic_loggerIcNS2_18severity_logger_mtINS1_7trivial14severity_levelEEENS2_18multi_thread_modelINS1_3aux14light_rw_mutexEEEEES7_EC2INS_9parameter3aux25tagged_argument_list_of_1INSH_15tagged_argumentINS1_8keywords3tag8severityEKS7_EEEEEERKT_(ptr noundef nonnull align 8 dereferenceable(96) %5, ptr noundef nonnull align 8 dereferenceable(8) %6)
  ret void
}

; Function Attrs: inlinehint mustprogress uwtable
define linkonce_odr hidden void @_ZN5boost9parameter3aux25tagged_argument_list_of_1INS1_15tagged_argumentINS_3log11v2_mt_posix8keywords3tag8severityEKNS5_7trivial14severity_levelEEEEC2ERSB_(ptr noundef nonnull align 8 dereferenceable(8) %0, ptr noundef nonnull align 4 dereferenceable(4) %1) unnamed_addr #5 comdat align 2 {
  %3 = alloca ptr, align 8
  %4 = alloca ptr, align 8
  store ptr %0, ptr %3, align 8, !tbaa !7
  store ptr %1, ptr %4, align 8, !tbaa !7
  %5 = load ptr, ptr %3, align 8
  %6 = load ptr, ptr %4, align 8, !tbaa !7
  call void @_ZN5boost9parameter3aux15tagged_argumentINS_3log11v2_mt_posix8keywords3tag8severityEKNS4_7trivial14severity_levelEEC2ERSA_(ptr noundef nonnull align 8 dereferenceable(8) %5, ptr noundef nonnull align 4 dereferenceable(4) %6)
  ret void
}

; Function Attrs: mustprogress uwtable
define linkonce_odr hidden void @_ZN5boost3log11v2_mt_posix7sources18severity_logger_mtINS1_7trivial14severity_levelEEC2INS_9parameter3aux25tagged_argument_list_of_1INS9_15tagged_argumentINS1_8keywords3tag8severityEKS5_EEEEEERKT_NS_11enable_if_cIXsr5boost3mpl3or_INS_10is_base_ofINS9_20tagged_argument_baseESI_EENSM_INS9_14empty_arg_listESI_EEEE5valueENS1_3aux12sfinae_dummyEE4typeE(ptr noundef nonnull align 8 dereferenceable(96) %0, ptr noundef nonnull align 8 dereferenceable(8) %1) unnamed_addr #2 comdat align 2 {
  %3 = alloca ptr, align 8
  %4 = alloca ptr, align 8
  store ptr %0, ptr %3, align 8, !tbaa !7
  store ptr %1, ptr %4, align 8, !tbaa !7
  %5 = load ptr, ptr %3, align 8
  %6 = load ptr, ptr %4, align 8, !tbaa !7
  call void @_ZN5boost3log11v2_mt_posix7sources22basic_composite_loggerIcNS2_18severity_logger_mtINS1_7trivial14severity_levelEEENS2_18multi_thread_modelINS1_3aux14light_rw_mutexEEENS2_8featuresIJNS2_8severityIS6_EEEEEEC2INS_9parameter3aux25tagged_argument_list_of_1INSJ_15tagged_argumentINS1_8keywords3tag8severityEKS6_EEEEEERKT_(ptr noundef nonnull align 8 dereferenceable(96) %5, ptr noundef nonnull align 8 dereferenceable(8) %6)
  ret void
}

; Function Attrs: inlinehint mustprogress uwtable
define linkonce_odr hidden void @_ZNK5boost9parameter7keywordINS_3log11v2_mt_posix8keywords3tag8severityEEaSINS3_7trivial14severity_levelEEENS_14lazy_enable_ifINS_4mp116detail12mp_if_c_implIXscbgssr3std9is_scalarIT_EE5valueESt17integral_constantIbLb1EEJSt7is_sameINS0_17forward_referenceESJ_EEE4typeENSE_IXscbgssr5boost4mp115mp_ifISt19is_lvalue_referenceIRKSF_ESH_SG_IbXeqszclgssr5boost9parameter3auxE29is_cv_reference_wrapper_checkscPNSt16remove_referenceISP_E4typeELDnEELm1EEEEE5valueENS0_3aux23tag_if_lvalue_referenceIS6_SP_EEJNSE_IXscbgssr3std9is_scalarINSt12remove_constISP_E4typeEEE5valueENSW_13tag_if_scalarIS6_SP_EEJNSC_11mp_identityINSW_25tagged_argument_list_of_1INSW_20tagged_argument_rrefIS6_SP_EEEEEEEE4typeEEE4typeEE4typeESP_(ptr dead_on_unwind noalias writable sret(%"struct.boost::parameter::aux::tagged_argument_list_of_1") align 8 %0, ptr noundef nonnull align 1 dereferenceable(1) %1, ptr noundef nonnull align 4 dereferenceable(4) %2) #5 comdat align 2 {
  %4 = alloca ptr, align 8
  %5 = alloca ptr, align 8
  %6 = alloca ptr, align 8
  store ptr %0, ptr %4, align 8
  store ptr %1, ptr %5, align 8, !tbaa !7
  store ptr %2, ptr %6, align 8, !tbaa !7
  %7 = load ptr, ptr %6, align 8, !tbaa !7
  call void @_ZN5boost9parameter3aux25tagged_argument_list_of_1INS1_15tagged_argumentINS_3log11v2_mt_posix8keywords3tag8severityEKNS5_7trivial14severity_levelEEEEC2ERSB_(ptr noundef nonnull align 8 dereferenceable(8) %0, ptr noundef nonnull align 4 dereferenceable(4) %7)
  ret void
}

; Function Attrs: mustprogress uwtable
define void @_ZN5boost3log11v2_mt_posix7trivial6logger16construct_loggerEv(ptr dead_on_unwind noalias writable sret(%"class.boost::log::v2_mt_posix::sources::severity_logger_mt") align 8 %0) #2 align 2 {
  %2 = alloca ptr, align 8
  %3 = alloca %"struct.boost::parameter::aux::tagged_argument_list_of_1", align 8
  %4 = alloca i32, align 4
  store ptr %0, ptr %2, align 8
  call void @llvm.lifetime.start.p0(i64 8, ptr %3) #17
  call void @llvm.lifetime.start.p0(i64 4, ptr %4) #17
  store i32 2, ptr %4, align 4, !tbaa !3
  call void @_ZNK5boost9parameter7keywordINS_3log11v2_mt_posix8keywords3tag8severityEEaSINS3_7trivial14severity_levelEEENS_14lazy_enable_ifINS_4mp116detail12mp_if_c_implIXscbgssr3std9is_scalarIT_EE5valueESt17integral_constantIbLb1EEJSt7is_sameINS0_17forward_referenceESJ_EEE4typeENSE_IXscbgssr5boost4mp115mp_ifISt19is_lvalue_referenceIRKSF_ESH_SG_IbXeqszclgssr5boost9parameter3auxE29is_cv_reference_wrapper_checkscPNSt16remove_referenceISP_E4typeELDnEELm1EEEEE5valueENS0_3aux23tag_if_lvalue_referenceIS6_SP_EEJNSE_IXscbgssr3std9is_scalarINSt12remove_constISP_E4typeEEE5valueENSW_13tag_if_scalarIS6_SP_EEJNSC_11mp_identityINSW_25tagged_argument_list_of_1INSW_20tagged_argument_rrefIS6_SP_EEEEEEEE4typeEEE4typeEE4typeESP_(ptr dead_on_unwind writable sret(%"struct.boost::parameter::aux::tagged_argument_list_of_1") align 8 %3, ptr noundef nonnull align 1 dereferenceable(1) @_ZN5boost9parameter7keywordINS_3log11v2_mt_posix8keywords3tag8severityEE8instanceE, ptr noundef nonnull align 4 dereferenceable(4) %4)
  call void @_ZN5boost3log11v2_mt_posix7sources18severity_logger_mtINS1_7trivial14severity_levelEEC2INS_9parameter3aux25tagged_argument_list_of_1INS9_15tagged_argumentINS1_8keywords3tag8severityEKS5_EEEEEERKT_NS_11enable_if_cIXsr5boost3mpl3or_INS_10is_base_ofINS9_20tagged_argument_baseESI_EENSM_INS9_14empty_arg_listESI_EEEE5valueENS1_3aux12sfinae_dummyEE4typeE(ptr noundef nonnull align 8 dereferenceable(96) %0, ptr noundef nonnull align 8 dereferenceable(8) %3)
  call void @llvm.lifetime.end.p0(i64 4, ptr %4) #17
  call void @llvm.lifetime.end.p0(i64 8, ptr %3) #17
  ret void
}