; Function Attrs: mustprogress uwtable
define void @_ZN5boost3log11v2_mt_posix7trivial6logger16construct_loggerEv(ptr dead_on_unwind noalias nonnull writable sret(%"class.boost::log::v2_mt_posix::sources::severity_logger_mt") align 8 %0) local_unnamed_addr #1 align 2 {
  %2 = alloca %"struct.boost::parameter::aux::tagged_argument_list_of_1", align 8
  %3 = alloca i32, align 4
  call void @llvm.lifetime.start.p0(i64 8, ptr nonnull %2) #17
  call void @llvm.lifetime.start.p0(i64 4, ptr nonnull %3) #17
  store i32 2, ptr %3, align 4, !tbaa !4
  store ptr %3, ptr %2, align 8, !tbaa !32, !alias.scope !33
  call void @_ZN5boost3log11v2_mt_posix7sources21basic_severity_loggerINS2_12basic_loggerIcNS2_18severity_logger_mtINS1_7trivial14severity_levelEEENS2_18multi_thread_modelINS1_3aux14light_rw_mutexEEEEES7_EC2INS_9parameter3aux25tagged_argument_list_of_1INSH_15tagged_argumentINS1_8keywords3tag8severityEKS7_EEEEEERKT_(ptr noundef nonnull align 8 dereferenceable(96) %0, ptr noundef nonnull align 8 dereferenceable(8) %2)
  call void @llvm.lifetime.end.p0(i64 4, ptr nonnull %3) #17
  call void @llvm.lifetime.end.p0(i64 8, ptr nonnull %2) #17
  ret void
}